; Function Attrs: mustprogress uwtable
define hidden void @_ZN2dd11bdd_manager11reserve_varEj(ptr noundef nonnull align 8 dereferenceable(728) %this, i32 noundef %i) local_unnamed_addr #3 align 2 {
entry:
  %m_var2level = getelementptr inbounds i8, ptr %this, i64 96
  %m_var2bdd = getelementptr inbounds i8, ptr %this, i64 88
  %m_nodes = getelementptr inbounds i8, ptr %this, i64 8
  %m_level2var = getelementptr inbounds i8, ptr %this, i64 104
  br label %while.cond

while.cond:                                       ; preds = %_ZN6vectorIjLb0EjE9push_backERKj.exit59, %entry
  %0 = load ptr, ptr %m_var2level, align 8
  %cmp.i = icmp eq ptr %0, null
  br i1 %cmp.i, label %_ZNK6vectorIjLb0EjE4sizeEv.exit5, label %_ZNK6vectorIjLb0EjE4sizeEv.exit

_ZNK6vectorIjLb0EjE4sizeEv.exit:                  ; preds = %while.cond
  %arrayidx.i = getelementptr inbounds i8, ptr %0, i64 -4
  %1 = load i32, ptr %arrayidx.i, align 4
  %cmp.not = icmp ugt i32 %1, %i
  br i1 %cmp.not, label %while.end, label %_ZNK6vectorIjLb0EjE4sizeEv.exit5

_ZNK6vectorIjLb0EjE4sizeEv.exit5:                 ; preds = %_ZNK6vectorIjLb0EjE4sizeEv.exit, %while.cond
  %retval.0.i4 = phi i32 [ 0, %while.cond ], [ %1, %_ZNK6vectorIjLb0EjE4sizeEv.exit ]
  %call4 = tail call noundef i32 @_ZN2dd11bdd_manager9make_nodeEjjj(ptr noundef nonnull align 8 dereferenceable(728) %this, i32 noundef %retval.0.i4, i32 noundef 0, i32 noundef 1)
  %2 = load ptr, ptr %m_var2bdd, align 8
  %cmp.i6 = icmp eq ptr %2, null
  br i1 %cmp.i6, label %if.then.i, label %lor.lhs.false.i

lor.lhs.false.i:                                  ; preds = %_ZNK6vectorIjLb0EjE4sizeEv.exit5
  %arrayidx.i7 = getelementptr inbounds i8, ptr %2, i64 -4
  %3 = load i32, ptr %arrayidx.i7, align 4
  %arrayidx4.i = getelementptr inbounds i8, ptr %2, i64 -8
  %4 = load i32, ptr %arrayidx4.i, align 4
  %cmp5.i = icmp eq i32 %3, %4
  br i1 %cmp5.i, label %if.then.i, label %_ZN6vectorIjLb0EjE9push_backEOj.exit

if.then.i:                                        ; preds = %lor.lhs.false.i, %_ZNK6vectorIjLb0EjE4sizeEv.exit5
  tail call void @_ZN6vectorIjLb0EjE13expand_vectorEv(ptr noundef nonnull align 8 dereferenceable(8) %m_var2bdd)
  %.pre.i = load ptr, ptr %m_var2bdd, align 8
  %arrayidx8.phi.trans.insert.i = getelementptr inbounds i8, ptr %.pre.i, i64 -4
  %.pre1.i = load i32, ptr %arrayidx8.phi.trans.insert.i, align 4
  br label %_ZN6vectorIjLb0EjE9push_backEOj.exit

_ZN6vectorIjLb0EjE9push_backEOj.exit:             ; preds = %lor.lhs.false.i, %if.then.i
  %5 = phi i32 [ %.pre1.i, %if.then.i ], [ %3, %lor.lhs.false.i ]
  %6 = phi ptr [ %.pre.i, %if.then.i ], [ %2, %lor.lhs.false.i ]
  %idx.ext.i = zext i32 %5 to i64
  %add.ptr.i = getelementptr inbounds i32, ptr %6, i64 %idx.ext.i
  store i32 %call4, ptr %add.ptr.i, align 4
  %7 = load ptr, ptr %m_var2bdd, align 8
  %arrayidx10.i = getelementptr inbounds i8, ptr %7, i64 -4
  %8 = load i32, ptr %arrayidx10.i, align 4
  %inc.i = add i32 %8, 1
  store i32 %inc.i, ptr %arrayidx10.i, align 4
  %call8 = tail call noundef i32 @_ZN2dd11bdd_manager9make_nodeEjjj(ptr noundef nonnull align 8 dereferenceable(728) %this, i32 noundef %retval.0.i4, i32 noundef 1, i32 noundef 0)
  %9 = load ptr, ptr %m_var2bdd, align 8
  %cmp.i9 = icmp eq ptr %9, null
  br i1 %cmp.i9, label %if.then.i19, label %lor.lhs.false.i10

lor.lhs.false.i10:                                ; preds = %_ZN6vectorIjLb0EjE9push_backEOj.exit
  %arrayidx.i11 = getelementptr inbounds i8, ptr %9, i64 -4
  %10 = load i32, ptr %arrayidx.i11, align 4
  %arrayidx4.i12 = getelementptr inbounds i8, ptr %9, i64 -8
  %11 = load i32, ptr %arrayidx4.i12, align 4
  %cmp5.i13 = icmp eq i32 %10, %11
  br i1 %cmp5.i13, label %if.then.i19, label %_ZN6vectorIjLb0EjE9push_backEOj.exit23

if.then.i19:                                      ; preds = %lor.lhs.false.i10, %_ZN6vectorIjLb0EjE9push_backEOj.exit
  tail call void @_ZN6vectorIjLb0EjE13expand_vectorEv(ptr noundef nonnull align 8 dereferenceable(8) %m_var2bdd)
  %.pre.i20 = load ptr, ptr %m_var2bdd, align 8
  %arrayidx8.phi.trans.insert.i21 = getelementptr inbounds i8, ptr %.pre.i20, i64 -4
  %.pre1.i22 = load i32, ptr %arrayidx8.phi.trans.insert.i21, align 4
  br label %_ZN6vectorIjLb0EjE9push_backEOj.exit23

_ZN6vectorIjLb0EjE9push_backEOj.exit23:           ; preds = %lor.lhs.false.i10, %if.then.i19
  %12 = phi i32 [ %.pre1.i22, %if.then.i19 ], [ %10, %lor.lhs.false.i10 ]
  %13 = phi ptr [ %.pre.i20, %if.then.i19 ], [ %9, %lor.lhs.false.i10 ]
  %idx.ext.i15 = zext i32 %12 to i64
  %add.ptr.i16 = getelementptr inbounds i32, ptr %13, i64 %idx.ext.i15
  store i32 %call8, ptr %add.ptr.i16, align 4
  %14 = load ptr, ptr %m_var2bdd, align 8
  %arrayidx10.i17 = getelementptr inbounds i8, ptr %14, i64 -4
  %15 = load i32, ptr %arrayidx10.i17, align 4
  %inc.i18 = add i32 %15, 1
  store i32 %inc.i18, ptr %arrayidx10.i17, align 4
  %mul = shl i32 %retval.0.i4, 1
  %16 = load ptr, ptr %m_var2bdd, align 8
  %idxprom.i = zext i32 %mul to i64
  %arrayidx.i24 = getelementptr inbounds i32, ptr %16, i64 %idxprom.i
  %17 = load i32, ptr %arrayidx.i24, align 4
  %18 = load ptr, ptr %m_nodes, align 8
  %idxprom.i25 = zext i32 %17 to i64
  %arrayidx.i26 = getelementptr inbounds %"struct.dd::bdd_manager::bdd_node", ptr %18, i64 %idxprom.i25
  %bf.load = load i32, ptr %arrayidx.i26, align 4
  %bf.set = or i32 %bf.load, 1023
  store i32 %bf.set, ptr %arrayidx.i26, align 4
  %add = or disjoint i32 %mul, 1
  %19 = load ptr, ptr %m_var2bdd, align 8
  %idxprom.i27 = zext i32 %add to i64
  %arrayidx.i28 = getelementptr inbounds i32, ptr %19, i64 %idxprom.i27
  %20 = load i32, ptr %arrayidx.i28, align 4
  %21 = load ptr, ptr %m_nodes, align 8
  %idxprom.i29 = zext i32 %20 to i64
  %arrayidx.i30 = getelementptr inbounds %"struct.dd::bdd_manager::bdd_node", ptr %21, i64 %idxprom.i29
  %bf.load18 = load i32, ptr %arrayidx.i30, align 4
  %bf.set20 = or i32 %bf.load18, 1023
  store i32 %bf.set20, ptr %arrayidx.i30, align 4
  %22 = load ptr, ptr %m_var2level, align 8
  %cmp.i31 = icmp eq ptr %22, null
  br i1 %cmp.i31, label %if.then.i41, label %lor.lhs.false.i32

lor.lhs.false.i32:                                ; preds = %_ZN6vectorIjLb0EjE9push_backEOj.exit23
  %arrayidx.i33 = getelementptr inbounds i8, ptr %22, i64 -4
  %23 = load i32, ptr %arrayidx.i33, align 4
  %arrayidx4.i34 = getelementptr inbounds i8, ptr %22, i64 -8
  %24 = load i32, ptr %arrayidx4.i34, align 4
  %cmp5.i35 = icmp eq i32 %23, %24
  br i1 %cmp5.i35, label %if.then.i41, label %_ZN6vectorIjLb0EjE9push_backERKj.exit

if.then.i41:                                      ; preds = %lor.lhs.false.i32, %_ZN6vectorIjLb0EjE9push_backEOj.exit23
  tail call void @_ZN6vectorIjLb0EjE13expand_vectorEv(ptr noundef nonnull align 8 dereferenceable(8) %m_var2level)
  %.pre.i42 = load ptr, ptr %m_var2level, align 8
  %arrayidx8.phi.trans.insert.i43 = getelementptr inbounds i8, ptr %.pre.i42, i64 -4
  %.pre1.i44 = load i32, ptr %arrayidx8.phi.trans.insert.i43, align 4
  br label %_ZN6vectorIjLb0EjE9push_backERKj.exit

_ZN6vectorIjLb0EjE9push_backERKj.exit:            ; preds = %lor.lhs.false.i32, %if.then.i41
  %25 = phi i32 [ %.pre1.i44, %if.then.i41 ], [ %23, %lor.lhs.false.i32 ]
  %26 = phi ptr [ %.pre.i42, %if.then.i41 ], [ %22, %lor.lhs.false.i32 ]
  %idx.ext.i37 = zext i32 %25 to i64
  %add.ptr.i38 = getelementptr inbounds i32, ptr %26, i64 %idx.ext.i37
  store i32 %retval.0.i4, ptr %add.ptr.i38, align 4
  %27 = load ptr, ptr %m_var2level, align 8
  %arrayidx10.i39 = getelementptr inbounds i8, ptr %27, i64 -4
  %28 = load i32, ptr %arrayidx10.i39, align 4
  %inc.i40 = add i32 %28, 1
  store i32 %inc.i40, ptr %arrayidx10.i39, align 4
  %29 = load ptr, ptr %m_level2var, align 8
  %cmp.i45 = icmp eq ptr %29, null
  br i1 %cmp.i45, label %if.then.i55, label %lor.lhs.false.i46

lor.lhs.false.i46:                                ; preds = %_ZN6vectorIjLb0EjE9push_backERKj.exit
  %arrayidx.i47 = getelementptr inbounds i8, ptr %29, i64 -4
  %30 = load i32, ptr %arrayidx.i47, align 4
  %arrayidx4.i48 = getelementptr inbounds i8, ptr %29, i64 -8
  %31 = load i32, ptr %arrayidx4.i48, align 4
  %cmp5.i49 = icmp eq i32 %30, %31
  br i1 %cmp5.i49, label %if.then.i55, label %_ZN6vectorIjLb0EjE9push_backERKj.exit59

if.then.i55:                                      ; preds = %lor.lhs.false.i46, %_ZN6vectorIjLb0EjE9push_backERKj.exit
  tail call void @_ZN6vectorIjLb0EjE13expand_vectorEv(ptr noundef nonnull align 8 dereferenceable(8) %m_level2var)
  %.pre.i56 = load ptr, ptr %m_level2var, align 8
  %arrayidx8.phi.trans.insert.i57 = getelementptr inbounds i8, ptr %.pre.i56, i64 -4
  %.pre1.i58 = load i32, ptr %arrayidx8.phi.trans.insert.i57, align 4
  br label %_ZN6vectorIjLb0EjE9push_backERKj.exit59

_ZN6vectorIjLb0EjE9push_backERKj.exit59:          ; preds = %lor.lhs.false.i46, %if.then.i55
  %32 = phi i32 [ %.pre1.i58, %if.then.i55 ], [ %30, %lor.lhs.false.i46 ]
  %33 = phi ptr [ %.pre.i56, %if.then.i55 ], [ %29, %lor.lhs.false.i46 ]
  %idx.ext.i51 = zext i32 %32 to i64
  %add.ptr.i52 = getelementptr inbounds i32, ptr %33, i64 %idx.ext.i51
  store i32 %retval.0.i4, ptr %add.ptr.i52, align 4
  %34 = load ptr, ptr %m_level2var, align 8
  %arrayidx10.i53 = getelementptr inbounds i8, ptr %34, i64 -4
  %35 = load i32, ptr %arrayidx10.i53, align 4
  %inc.i54 = add i32 %35, 1
  store i32 %inc.i54, ptr %arrayidx10.i53, align 4
  br label %while.cond, !llvm.loop !14

while.end:                                        ; preds = %_ZNK6vectorIjLb0EjE4sizeEv.exit
  ret void
}